
As-needed library included to satisfy reference by file (symbol)

libgcc_s.so.1                 C:/Program Files (x86)/Microsoft Azure Sphere SDK/Sysroots/1/usr/lib/Scrt1.o (__aeabi_unwind_cpp_pr0@@GCC_3.5)

Discarded input sections

 .note.GNU-stack
                0x00000000        0x0 C:/Program Files (x86)/Microsoft Azure Sphere SDK/Sysroots/1/usr/lib/Scrt1.o
 .note.GNU-stack
                0x00000000        0x0 C:/Program Files (x86)/Microsoft Azure Sphere SDK/Sysroots/1/usr/lib/crti.o
 .note.GNU-stack
                0x00000000        0x0 C:/Program Files (x86)/Microsoft Azure Sphere SDK/Sysroots/1/usr/lib/arm-poky-linux-musleabi/7.3.0/crtbeginS.o
 .note.GNU-stack
                0x00000000        0x0 obj\ARM\Debug\il2c.o
 .note.GNU-stack
                0x00000000        0x0 obj\ARM\Debug\System.Array.o
 .note.GNU-stack
                0x00000000        0x0 obj\ARM\Debug\System.Boolean.o
 .note.GNU-stack
                0x00000000        0x0 obj\ARM\Debug\System.Byte.o
 .note.GNU-stack
                0x00000000        0x0 obj\ARM\Debug\System.Char.o
 .note.GNU-stack
                0x00000000        0x0 obj\ARM\Debug\System.Console.o
 .note.GNU-stack
                0x00000000        0x0 obj\ARM\Debug\System.Delegate.o
 .note.GNU-stack
                0x00000000        0x0 obj\ARM\Debug\System.Double.o
 .note.GNU-stack
                0x00000000        0x0 obj\ARM\Debug\System.Enum.o
 .note.GNU-stack
                0x00000000        0x0 obj\ARM\Debug\System.Exception.o
 .note.GNU-stack
                0x00000000        0x0 obj\ARM\Debug\System.GC.o
 .note.GNU-stack
                0x00000000        0x0 obj\ARM\Debug\System.Int16.o
 .note.GNU-stack
                0x00000000        0x0 obj\ARM\Debug\System.Int32.o
 .note.GNU-stack
                0x00000000        0x0 obj\ARM\Debug\System.Int64.o
 .note.GNU-stack
                0x00000000        0x0 obj\ARM\Debug\System.IntPtr.o
 .note.GNU-stack
                0x00000000        0x0 obj\ARM\Debug\System.IndexOutOfRangeException.o
 .note.GNU-stack
                0x00000000        0x0 obj\ARM\Debug\System.InvalidCastException.o
 .note.GNU-stack
                0x00000000        0x0 obj\ARM\Debug\System.MulticastDelegate.o
 .note.GNU-stack
                0x00000000        0x0 obj\ARM\Debug\System.NullReferenceException.o
 .note.GNU-stack
                0x00000000        0x0 obj\ARM\Debug\System.Object.o
 .note.GNU-stack
                0x00000000        0x0 obj\ARM\Debug\System.Runtime.CompilerServices.RuntimeHelpers.o
 .note.GNU-stack
                0x00000000        0x0 obj\ARM\Debug\System.SByte.o
 .note.GNU-stack
                0x00000000        0x0 obj\ARM\Debug\System.Single.o
 .note.GNU-stack
                0x00000000        0x0 obj\ARM\Debug\System.String.o
 .note.GNU-stack
                0x00000000        0x0 obj\ARM\Debug\System.Type.o
 .note.GNU-stack
                0x00000000        0x0 obj\ARM\Debug\System.UInt16.o
 .note.GNU-stack
                0x00000000        0x0 obj\ARM\Debug\System.UInt32.o
 .note.GNU-stack
                0x00000000        0x0 obj\ARM\Debug\System.UInt64.o
 .note.GNU-stack
                0x00000000        0x0 obj\ARM\Debug\System.UIntPtr.o
 .note.GNU-stack
                0x00000000        0x0 obj\ARM\Debug\System.ValueType.o
 .note.GNU-stack
                0x00000000        0x0 C:/Program Files (x86)/Microsoft Azure Sphere SDK/Sysroots/1/usr/lib/arm-poky-linux-musleabi/7.3.0/crtendS.o
 .note.GNU-stack
                0x00000000        0x0 C:/Program Files (x86)/Microsoft Azure Sphere SDK/Sysroots/1/usr/lib/crtn.o

Memory Configuration

Name             Origin             Length             Attributes
*default*        0x00000000         0xffffffff

Linker script and memory map

LOAD C:/Program Files (x86)/Microsoft Azure Sphere SDK/Sysroots/1/usr/lib/Scrt1.o
LOAD C:/Program Files (x86)/Microsoft Azure Sphere SDK/Sysroots/1/usr/lib/crti.o
LOAD C:/Program Files (x86)/Microsoft Azure Sphere SDK/Sysroots/1/usr/lib/arm-poky-linux-musleabi/7.3.0/crtbeginS.o
LOAD obj\ARM\Debug\il2c.o
LOAD obj\ARM\Debug\System.Array.o
LOAD obj\ARM\Debug\System.Boolean.o
LOAD obj\ARM\Debug\System.Byte.o
LOAD obj\ARM\Debug\System.Char.o
LOAD obj\ARM\Debug\System.Console.o
LOAD obj\ARM\Debug\System.Delegate.o
LOAD obj\ARM\Debug\System.Double.o
LOAD obj\ARM\Debug\System.Enum.o
LOAD obj\ARM\Debug\System.Exception.o
LOAD obj\ARM\Debug\System.GC.o
LOAD obj\ARM\Debug\System.Int16.o
LOAD obj\ARM\Debug\System.Int32.o
LOAD obj\ARM\Debug\System.Int64.o
LOAD obj\ARM\Debug\System.IntPtr.o
LOAD obj\ARM\Debug\System.IndexOutOfRangeException.o
LOAD obj\ARM\Debug\System.InvalidCastException.o
LOAD obj\ARM\Debug\System.MulticastDelegate.o
LOAD obj\ARM\Debug\System.NullReferenceException.o
LOAD obj\ARM\Debug\System.Object.o
LOAD obj\ARM\Debug\System.Runtime.CompilerServices.RuntimeHelpers.o
LOAD obj\ARM\Debug\System.SByte.o
LOAD obj\ARM\Debug\System.Single.o
LOAD obj\ARM\Debug\System.String.o
LOAD obj\ARM\Debug\System.Type.o
LOAD obj\ARM\Debug\System.UInt16.o
LOAD obj\ARM\Debug\System.UInt32.o
LOAD obj\ARM\Debug\System.UInt64.o
LOAD obj\ARM\Debug\System.UIntPtr.o
LOAD obj\ARM\Debug\System.ValueType.o
LOAD C:/Program Files (x86)/Microsoft Azure Sphere SDK/Sysroots/1/usr/lib/arm-poky-linux-musleabi/7.3.0\libgcc.a
LOAD C:/Program Files (x86)/Microsoft Azure Sphere SDK/Sysroots/1/lib/libgcc_s.so
START GROUP
LOAD C:/Program Files (x86)/Microsoft Azure Sphere SDK/Sysroots/1/lib\libgcc_s.so.1
LOAD C:/Program Files (x86)/Microsoft Azure Sphere SDK/Sysroots/1/usr/lib/arm-poky-linux-musleabi/7.3.0\libgcc.a
END GROUP
LOAD C:/Program Files (x86)/Microsoft Azure Sphere SDK/Sysroots/1/usr/lib/libc.so
LOAD C:/Program Files (x86)/Microsoft Azure Sphere SDK/Sysroots/1/usr/lib/arm-poky-linux-musleabi/7.3.0\libgcc.a
LOAD C:/Program Files (x86)/Microsoft Azure Sphere SDK/Sysroots/1/lib/libgcc_s.so
START GROUP
LOAD C:/Program Files (x86)/Microsoft Azure Sphere SDK/Sysroots/1/lib\libgcc_s.so.1
LOAD C:/Program Files (x86)/Microsoft Azure Sphere SDK/Sysroots/1/usr/lib/arm-poky-linux-musleabi/7.3.0\libgcc.a
END GROUP
LOAD C:/Program Files (x86)/Microsoft Azure Sphere SDK/Sysroots/1/usr/lib/arm-poky-linux-musleabi/7.3.0/crtendS.o
LOAD C:/Program Files (x86)/Microsoft Azure Sphere SDK/Sysroots/1/usr/lib/crtn.o
                [!provide]                PROVIDE (__executable_start = SEGMENT_START ("text-segment", 0x0))
                0x00000154                . = (SEGMENT_START ("text-segment", 0x0) + SIZEOF_HEADERS)

.interp         0x00000154       0x18
 *(.interp)
 .interp        0x00000154       0x18 C:/Program Files (x86)/Microsoft Azure Sphere SDK/Sysroots/1/usr/lib/Scrt1.o

.note.gnu.build-id
                0x0000016c       0x24
 *(.note.gnu.build-id)
 .note.gnu.build-id
                0x0000016c       0x24 linker stubs

.hash
 *(.hash)

.gnu.hash       0x00000190       0x48
 *(.gnu.hash)
 .gnu.hash      0x00000190       0x48 C:/Program Files (x86)/Microsoft Azure Sphere SDK/Sysroots/1/usr/lib/Scrt1.o

.dynsym         0x000001d8      0x2c0
 *(.dynsym)
 .dynsym        0x000001d8      0x2c0 C:/Program Files (x86)/Microsoft Azure Sphere SDK/Sysroots/1/usr/lib/Scrt1.o

.dynstr         0x00000498      0x1d9
 *(.dynstr)
 .dynstr        0x00000498      0x1d9 C:/Program Files (x86)/Microsoft Azure Sphere SDK/Sysroots/1/usr/lib/Scrt1.o

.gnu.version    0x00000672       0x58
 *(.gnu.version)
 .gnu.version   0x00000672       0x58 C:/Program Files (x86)/Microsoft Azure Sphere SDK/Sysroots/1/usr/lib/Scrt1.o

.gnu.version_d  0x000006cc        0x0
 *(.gnu.version_d)
 .gnu.version_d
                0x000006cc        0x0 C:/Program Files (x86)/Microsoft Azure Sphere SDK/Sysroots/1/usr/lib/Scrt1.o

.gnu.version_r  0x000006cc       0x20
 *(.gnu.version_r)
 .gnu.version_r
                0x000006cc       0x20 C:/Program Files (x86)/Microsoft Azure Sphere SDK/Sysroots/1/usr/lib/Scrt1.o

.rel.dyn        0x000006ec      0x6a8
 *(.rel.init)
 *(.rel.text .rel.text.* .rel.gnu.linkonce.t.*)
 .rel.text      0x000006ec        0x0 C:/Program Files (x86)/Microsoft Azure Sphere SDK/Sysroots/1/usr/lib/Scrt1.o
 *(.rel.fini)
 *(.rel.rodata .rel.rodata.* .rel.gnu.linkonce.r.*)
 *(.rel.data.rel.ro .rel.data.rel.ro.* .rel.gnu.linkonce.d.rel.ro.*)
 .rel.data.rel.ro
                0x000006ec      0x5b8 C:/Program Files (x86)/Microsoft Azure Sphere SDK/Sysroots/1/usr/lib/Scrt1.o
 .rel.data.rel.ro.local
                0x00000ca4       0x60 C:/Program Files (x86)/Microsoft Azure Sphere SDK/Sysroots/1/usr/lib/Scrt1.o
 *(.rel.data .rel.data.* .rel.gnu.linkonce.d.*)
 .rel.data.rel.local
                0x00000d04        0x8 C:/Program Files (x86)/Microsoft Azure Sphere SDK/Sysroots/1/usr/lib/Scrt1.o
 *(.rel.tdata .rel.tdata.* .rel.gnu.linkonce.td.*)
 *(.rel.tbss .rel.tbss.* .rel.gnu.linkonce.tb.*)
 *(.rel.ctors)
 *(.rel.dtors)
 *(.rel.got)
 .rel.got       0x00000d0c       0x78 C:/Program Files (x86)/Microsoft Azure Sphere SDK/Sysroots/1/usr/lib/Scrt1.o
 *(.rel.bss .rel.bss.* .rel.gnu.linkonce.b.*)
 .rel.bss       0x00000d84        0x0 C:/Program Files (x86)/Microsoft Azure Sphere SDK/Sysroots/1/usr/lib/Scrt1.o
                [!provide]                PROVIDE (__rel_iplt_start = .)
 *(.rel.iplt)
 .rel.iplt      0x00000d84        0x0 C:/Program Files (x86)/Microsoft Azure Sphere SDK/Sysroots/1/usr/lib/Scrt1.o
                [!provide]                PROVIDE (__rel_iplt_end = .)
 .rel.fini_array
                0x00000d84        0x8 C:/Program Files (x86)/Microsoft Azure Sphere SDK/Sysroots/1/usr/lib/Scrt1.o
 .rel.init_array
                0x00000d8c        0x8 C:/Program Files (x86)/Microsoft Azure Sphere SDK/Sysroots/1/usr/lib/Scrt1.o

.rela.dyn       0x00000d94        0x0
 *(.rela.init)
 *(.rela.text .rela.text.* .rela.gnu.linkonce.t.*)
 *(.rela.fini)
 *(.rela.rodata .rela.rodata.* .rela.gnu.linkonce.r.*)
 *(.rela.data .rela.data.* .rela.gnu.linkonce.d.*)
 *(.rela.tdata .rela.tdata.* .rela.gnu.linkonce.td.*)
 *(.rela.tbss .rela.tbss.* .rela.gnu.linkonce.tb.*)
 *(.rela.ctors)
 *(.rela.dtors)
 *(.rela.got)
 *(.rela.bss .rela.bss.* .rela.gnu.linkonce.b.*)
                [!provide]                PROVIDE (__rela_iplt_start = .)
 *(.rela.iplt)
                [!provide]                PROVIDE (__rela_iplt_end = .)

.rel.plt        0x00000d94       0xd0
 *(.rel.plt)
 .rel.plt       0x00000d94       0xd0 C:/Program Files (x86)/Microsoft Azure Sphere SDK/Sysroots/1/usr/lib/Scrt1.o

.rela.plt
 *(.rela.plt)

.init           0x00000e64        0x8
 *(SORT_NONE(.init))
 .init          0x00000e64        0x2 C:/Program Files (x86)/Microsoft Azure Sphere SDK/Sysroots/1/usr/lib/crti.o
                0x00000e64                _init
 .init          0x00000e66        0x6 C:/Program Files (x86)/Microsoft Azure Sphere SDK/Sysroots/1/usr/lib/crtn.o

.plt            0x00000e6c      0x14c
 *(.plt)
 .plt           0x00000e6c      0x14c C:/Program Files (x86)/Microsoft Azure Sphere SDK/Sysroots/1/usr/lib/Scrt1.o

.iplt           0x00000fb8        0x0
 *(.iplt)
 .iplt          0x00000fb8        0x0 C:/Program Files (x86)/Microsoft Azure Sphere SDK/Sysroots/1/usr/lib/Scrt1.o

.text           0x00000fb8     0x5e08
 *(.text.unlikely .text.*_unlikely .text.unlikely.*)
 *(.text.exit .text.exit.*)
 *(.text.startup .text.startup.*)
 *(.text.hot .text.hot.*)
 *(.text .stub .text.* .gnu.linkonce.t.*)
 .text          0x00000fb8       0x1c C:/Program Files (x86)/Microsoft Azure Sphere SDK/Sysroots/1/usr/lib/Scrt1.o
                0x00000fb8                _start
 .text._start_c
                0x00000fd4       0x38 C:/Program Files (x86)/Microsoft Azure Sphere SDK/Sysroots/1/usr/lib/Scrt1.o
                0x00000fd4                _start_c
 .text          0x0000100c        0x0 C:/Program Files (x86)/Microsoft Azure Sphere SDK/Sysroots/1/usr/lib/crti.o
 .text          0x0000100c       0xe8 C:/Program Files (x86)/Microsoft Azure Sphere SDK/Sysroots/1/usr/lib/arm-poky-linux-musleabi/7.3.0/crtbeginS.o
 .text          0x000010f4     0x14ac obj\ARM\Debug\il2c.o
                0x00001128                il2c_get_uninitialized_object_internal__
                0x000012bc                il2c_get_uninitialized_object__
                0x00001388                il2c_link_execution_frame
                0x00001400                il2c_unlink_execution_frame
                0x000016b0                il2c_default_mark_handler__
                0x00001708                il2c_step1_clear_gcmark__
                0x00001744                il2c_step2_mark_gcmark__
                0x00001880                il2c_step3_sweep_garbage__
                0x000018d4                il2c_collect
                0x000018e8                il2c_sizeof__
                0x00001934                il2c_isinst__
                0x00001a58                il2c_castclass__
                0x00001acc                il2c_box__
                0x00001b68                il2c_box2__
                0x00001f9c                il2c_unbox__
                0x00001fe0                il2c_link_unwind_target__
                0x00002078                il2c_unlink_unwind_target__
                0x00002298                il2c_throw__
                0x00002314                il2c_rethrow
                0x0000244c                il2c_initialize
                0x0000249c                il2c_shutdown
                0x000024e8                il2c_fmod
                0x00002510                il2c_break
                0x00002520                il2c_throw_nullreferenceexception__
                0x00002560                il2c_throw_invalidcastexception__
 .text          0x000025a0      0x520 obj\ARM\Debug\System.Array.o
                0x000026c6                System_Array_getLength
                0x00002780                System_Array_GetLowerBound
                0x00002844                System_Array_GetUpperBound
                0x0000290c                il2c_new_array__
                0x000029d4                il2c_throw_indexoutofrangeexception__
 .text          0x00002ac0      0x2d8 obj\ARM\Debug\System.Boolean.o
                0x00002ac0                System_Boolean_ToString
                0x00002af4                System_Boolean_GetHashCode
                0x00002b2c                System_Boolean_Equals
                0x00002b74                System_Boolean_Equals_1
                0x00002bdc                System_Boolean_TryParse
 .text          0x00002d98      0x2d4 obj\ARM\Debug\System.Byte.o
                0x00002dc0                System_Byte_ToString
                0x00002dee                System_Byte_GetHashCode
                0x00002e28                System_Byte_Equals
                0x00002e70                System_Byte_Equals_1
                0x00002ed8                System_Byte_TryParse
 .text          0x0000306c      0x27c obj\ARM\Debug\System.Char.o
                0x0000306c                System_Char_ToString
                0x00003092                System_Char_GetHashCode
                0x000030cc                System_Char_Equals
                0x00003114                System_Char_Equals_1
                0x0000317c                System_Char_TryParse
 .text          0x000032e8      0x1b8 obj\ARM\Debug\System.Console.o
                0x00003310                System_Console_Write_9
                0x00003388                System_Console_WriteLine
                0x000033b4                System_Console_WriteLine_6
                0x000033f0                System_Console_WriteLine_10
                0x00003468                System_Console_ReadLine
 .text          0x000034a0      0x760 obj\ARM\Debug\System.Delegate.o
                0x000034a0                System_Delegate_GetHashCode
                0x0000353c                System_Delegate_Equals
                0x00003688                System_Delegate_Combine
                0x000038ac                System_Delegate_Remove
                0x00003a8c                il2c_new_delegate__
                0x00003b18                System_Delegate_MarkHandler__
 .text          0x00003c00      0x314 obj\ARM\Debug\System.Double.o
                0x00003c00                System_Double_ToString
                0x00003c3c                System_Double_GetHashCode
                0x00003c88                System_Double_Equals
                0x00003cdc                System_Double_Equals_1
                0x00003d50                System_Double_TryParse
 .text          0x00003f14       0x68 obj\ARM\Debug\System.Enum.o
                0x00003f14                System_Enum_ToString
                0x00003f2c                System_Enum_GetHashCode
                0x00003f54                System_Enum_Equals
 .text          0x00003f7c      0x108 obj\ARM\Debug\System.Exception.o
                0x00003f7c                System_Exception__ctor
                0x00003fb0                System_Exception__ctor_1
                0x00003fec                System_Exception_get_Message
                0x00004024                System_Exception_ToString
 .text          0x00004084        0xc obj\ARM\Debug\System.GC.o
                0x00004084                System_GC_Collect
 .text          0x00004090      0x2e8 obj\ARM\Debug\System.Int16.o
                0x000040b8                System_Int16_ToString
                0x000040e8                System_Int16_GetHashCode
                0x00004124                System_Int16_Equals
                0x00004170                System_Int16_Equals_1
                0x000041dc                System_Int16_TryParse
 .text          0x00004378      0x2e8 obj\ARM\Debug\System.Int32.o
                0x000043a0                System_Int32_ToString
                0x000043f0                System_Int32_GetHashCode
                0x00004428                System_Int32_Equals
                0x00004470                System_Int32_Equals_1
                0x000044d8                System_Int32_TryParse
 .text          0x00004660      0x2f0 obj\ARM\Debug\System.Int64.o
                0x0000468c                System_Int64_ToString
                0x000046b8                System_Int64_GetHashCode
                0x00004704                System_Int64_Equals
                0x00004754                System_Int64_Equals_1
                0x000047c4                System_Int64_TryParse
 .text          0x00004950      0x22c obj\ARM\Debug\System.IntPtr.o
                0x0000497c                System_IntPtr_ToString
                0x000049ac                System_IntPtr_GetHashCode
                0x000049fc                System_IntPtr_Equals
                0x00004a44                System_IntPtr_Equals_1
 .text          0x00004b7c        0x0 obj\ARM\Debug\System.IndexOutOfRangeException.o
 .text          0x00004b7c        0x0 obj\ARM\Debug\System.InvalidCastException.o
 .text          0x00004b7c        0x0 obj\ARM\Debug\System.MulticastDelegate.o
 .text          0x00004b7c        0x0 obj\ARM\Debug\System.NullReferenceException.o
 .text          0x00004b7c      0x168 obj\ARM\Debug\System.Object.o
                0x00004b7c                System_Object_ToString
                0x00004bc0                System_Object_GetHashCode
                0x00004bf8                System_Object_GetType
                0x00004c54                System_Object_Finalize
                0x00004c7c                System_Object_Equals
                0x00004cc0                System_Object_ReferenceEquals
 .text          0x00004ce4       0xa8 obj\ARM\Debug\System.Runtime.CompilerServices.RuntimeHelpers.o
                0x00004ce4                System_Runtime_CompilerServices_RuntimeHelpers_GetHashCode
                0x00004cfc                System_Runtime_CompilerServices_RuntimeHelpers_InitializeArray
 .text          0x00004d8c      0x2e8 obj\ARM\Debug\System.SByte.o
                0x00004db4                System_SByte_ToString
                0x00004de4                System_SByte_GetHashCode
                0x00004e20                System_SByte_Equals
                0x00004e6c                System_SByte_Equals_1
                0x00004ed8                System_SByte_TryParse
 .text          0x00005074      0x2f4 obj\ARM\Debug\System.Single.o
                0x00005074                System_Single_ToString
                0x000050b4                System_Single_GetHashCode
                0x000050ec                System_Single_Equals
                0x00005140                System_Single_Equals_1
                0x000051b0                System_Single_TryParse
 .text          0x00005368      0xc54 obj\ARM\Debug\System.String.o
                0x000053ac                il2c_new_string
                0x000053ec                il2c_new_string_from_utf8
                0x00005546                il2c_c_str
                0x0000558c                System_String_ToString
                0x000055c4                System_String_Equals
                0x0000568c                System_String_Equals_1
                0x000056f4                System_String_GetHashCode
                0x00005784                System_String_Concat_3
                0x0000588c                System_String_Concat_4
                0x0000590c                System_String_Concat_5
                0x00005a90                System_String_Substring
                0x00005b84                System_String_Substring_1
                0x00005cb8                System_String_get_Chars
                0x00005d44                System_String_get_Length
                0x00005db0                System_String_IsNullOrWhiteSpace
                0x00005e24                System_String_op_Equality
                0x00005ef0                System_String_op_Inequality
 .text          0x00005fbc      0x2e8 obj\ARM\Debug\System.Type.o
                0x00005fbc                System_Type_ToString
                0x00006020                System_Type_GetHashCode
                0x00006080                System_Type_Equals
                0x000060f8                System_Type_Equals_1
                0x00006190                System_Type_get_FullName
                0x00006220                System_Type_get_BaseType
 .text          0x000062a4      0x2d4 obj\ARM\Debug\System.UInt16.o
                0x000062cc                System_UInt16_ToString
                0x000062fa                System_UInt16_GetHashCode
                0x00006334                System_UInt16_Equals
                0x0000637c                System_UInt16_Equals_1
                0x000063e4                System_UInt16_TryParse
 .text          0x00006578      0x2c4 obj\ARM\Debug\System.UInt32.o
                0x000065a0                System_UInt32_ToString
                0x000065cc                System_UInt32_GetHashCode
                0x00006604                System_UInt32_Equals
                0x0000664c                System_UInt32_Equals_1
                0x000066b4                System_UInt32_TryParse
 .text          0x0000683c      0x2f0 obj\ARM\Debug\System.UInt64.o
                0x00006868                System_UInt64_ToString
                0x00006894                System_UInt64_GetHashCode
                0x000068e0                System_UInt64_Equals
                0x00006930                System_UInt64_Equals_1
                0x000069a0                System_UInt64_TryParse
 .text          0x00006b2c      0x22c obj\ARM\Debug\System.UIntPtr.o
                0x00006b58                System_UIntPtr_ToString
                0x00006b88                System_UIntPtr_GetHashCode
                0x00006bd8                System_UIntPtr_Equals
                0x00006c20                System_UIntPtr_Equals_1
 .text          0x00006d58       0x68 obj\ARM\Debug\System.ValueType.o
                0x00006d58                System_ValueType_ToString
                0x00006d70                System_ValueType_GetHashCode
                0x00006d98                System_ValueType_Equals
 .text          0x00006dc0        0x0 C:/Program Files (x86)/Microsoft Azure Sphere SDK/Sysroots/1/usr/lib/arm-poky-linux-musleabi/7.3.0/crtendS.o
 .text          0x00006dc0        0x0 C:/Program Files (x86)/Microsoft Azure Sphere SDK/Sysroots/1/usr/lib/crtn.o
 *(.gnu.warning)
 *(.glue_7t)
 .glue_7t       0x00006dc0        0x0 linker stubs
 *(.glue_7)
 .glue_7        0x00006dc0        0x0 linker stubs
 *(.vfp11_veneer)
 .vfp11_veneer  0x00006dc0        0x0 linker stubs
 *(.v4_bx)
 .v4_bx         0x00006dc0        0x0 linker stubs

.fini           0x00006dc0        0x8
 *(SORT_NONE(.fini))
 .fini          0x00006dc0        0x2 C:/Program Files (x86)/Microsoft Azure Sphere SDK/Sysroots/1/usr/lib/crti.o
                0x00006dc0                _fini
 .fini          0x00006dc2        0x6 C:/Program Files (x86)/Microsoft Azure Sphere SDK/Sysroots/1/usr/lib/crtn.o
                [!provide]                PROVIDE (__etext = .)
                [!provide]                PROVIDE (_etext = .)
                [!provide]                PROVIDE (etext = .)

.rodata         0x00006dc8     0x2ac4
 *(.rodata .rodata.* .gnu.linkonce.r.*)
 .rodata        0x00006dc8      0x812 obj\ARM\Debug\il2c.o
 *fill*         0x000075da        0x2 
 .rodata        0x000075dc      0x2da obj\ARM\Debug\System.Array.o
 *fill*         0x000078b6        0x2 
 .rodata        0x000078b8      0x197 obj\ARM\Debug\System.Boolean.o
 *fill*         0x00007a4f        0x1 
 .rodata        0x00007a50      0x15c obj\ARM\Debug\System.Byte.o
 .rodata        0x00007bac      0x150 obj\ARM\Debug\System.Char.o
 .rodata        0x00007cfc       0xac obj\ARM\Debug\System.Console.o
 .rodata        0x00007da8      0x2b2 obj\ARM\Debug\System.Delegate.o
 *fill*         0x0000805a        0x2 
 .rodata        0x0000805c      0x182 obj\ARM\Debug\System.Double.o
 *fill*         0x000081de        0x2 
 .rodata        0x000081e0       0x5f obj\ARM\Debug\System.Enum.o
 *fill*         0x0000823f        0x1 
 .rodata        0x00008240       0xca obj\ARM\Debug\System.Exception.o
 *fill*         0x0000830a        0x2 
 .rodata        0x0000830c        0xa obj\ARM\Debug\System.GC.o
 *fill*         0x00008316        0x2 
 .rodata        0x00008318      0x16d obj\ARM\Debug\System.Int16.o
 *fill*         0x00008485        0x3 
 .rodata        0x00008488      0x185 obj\ARM\Debug\System.Int32.o
 *fill*         0x0000860d        0x3 
 .rodata        0x00008610      0x175 obj\ARM\Debug\System.Int64.o
 *fill*         0x00008785        0x3 
 .rodata        0x00008788      0x132 obj\ARM\Debug\System.IntPtr.o
                0x0000879c                System_IntPtr_Zero
 *fill*         0x000088ba        0x2 
 .rodata        0x000088bc       0x20 obj\ARM\Debug\System.IndexOutOfRangeException.o
 .rodata        0x000088dc       0x1c obj\ARM\Debug\System.InvalidCastException.o
 .rodata        0x000088f8       0x19 obj\ARM\Debug\System.MulticastDelegate.o
 *fill*         0x00008911        0x3 
 .rodata        0x00008914       0x1e obj\ARM\Debug\System.NullReferenceException.o
 *fill*         0x00008932        0x2 
 .rodata        0x00008934       0xc5 obj\ARM\Debug\System.Object.o
 *fill*         0x000089f9        0x3 
 .rodata        0x000089fc       0xe3 obj\ARM\Debug\System.Runtime.CompilerServices.RuntimeHelpers.o
 *fill*         0x00008adf        0x1 
 .rodata        0x00008ae0      0x16d obj\ARM\Debug\System.SByte.o
 *fill*         0x00008c4d        0x3 
 .rodata        0x00008c50      0x17e obj\ARM\Debug\System.Single.o
 *fill*         0x00008dce        0x2 
 .rodata        0x00008dd0      0x388 obj\ARM\Debug\System.String.o
 .rodata        0x00009158      0x10d obj\ARM\Debug\System.Type.o
 *fill*         0x00009265        0x3 
 .rodata        0x00009268      0x176 obj\ARM\Debug\System.UInt16.o
 *fill*         0x000093de        0x2 
 .rodata        0x000093e0      0x17a obj\ARM\Debug\System.UInt32.o
 *fill*         0x0000955a        0x2 
 .rodata        0x0000955c      0x17e obj\ARM\Debug\System.UInt64.o
 *fill*         0x000096da        0x2 
 .rodata        0x000096dc      0x133 obj\ARM\Debug\System.UIntPtr.o
                0x000096f0                System_UIntPtr_Zero
 *fill*         0x0000980f        0x1 
 .rodata        0x00009810       0x7c obj\ARM\Debug\System.ValueType.o

.rodata1
 *(.rodata1)

.ARM.extab      0x0000988c        0xc
 *(.ARM.extab* .gnu.linkonce.armextab.*)
 .ARM.extab.text._start_c
                0x0000988c        0x0 C:/Program Files (x86)/Microsoft Azure Sphere SDK/Sysroots/1/usr/lib/Scrt1.o
 .ARM.extab     0x0000988c        0xc C:/Program Files (x86)/Microsoft Azure Sphere SDK/Sysroots/1/usr/lib/arm-poky-linux-musleabi/7.3.0/crtbeginS.o
                [!provide]                PROVIDE (__exidx_start = .)

.ARM.exidx      0x00009898       0x28
 *(.ARM.exidx* .gnu.linkonce.armexidx.*)
 .ARM.exidx.text._start_c
                0x00009898        0x8 C:/Program Files (x86)/Microsoft Azure Sphere SDK/Sysroots/1/usr/lib/Scrt1.o
 .ARM.exidx     0x000098a0       0x20 C:/Program Files (x86)/Microsoft Azure Sphere SDK/Sysroots/1/usr/lib/arm-poky-linux-musleabi/7.3.0/crtbeginS.o
                [!provide]                PROVIDE (__exidx_end = .)

.eh_frame_hdr
 *(.eh_frame_hdr)
 *(.eh_frame_entry .eh_frame_entry.*)

.eh_frame       0x000098c0        0x4
 *(.eh_frame)
 .eh_frame      0x000098c0        0x0 C:/Program Files (x86)/Microsoft Azure Sphere SDK/Sysroots/1/usr/lib/arm-poky-linux-musleabi/7.3.0/crtbeginS.o
 .eh_frame      0x000098c0        0x4 C:/Program Files (x86)/Microsoft Azure Sphere SDK/Sysroots/1/usr/lib/arm-poky-linux-musleabi/7.3.0/crtendS.o
 *(.eh_frame.*)

.gcc_except_table
 *(.gcc_except_table .gcc_except_table.*)

.gnu_extab
 *(.gnu_extab*)

.exception_ranges
 *(.exception_ranges .exception_ranges*)
                0x0001998c                . = DATA_SEGMENT_ALIGN (CONSTANT (MAXPAGESIZE), CONSTANT (COMMONPAGESIZE))

.eh_frame
 *(.eh_frame)
 *(.eh_frame.*)

.gnu_extab
 *(.gnu_extab)

.gcc_except_table
 *(.gcc_except_table .gcc_except_table.*)

.exception_ranges
 *(.exception_ranges .exception_ranges*)

.tdata
 *(.tdata .tdata.* .gnu.linkonce.td.*)

.tbss
 *(.tbss .tbss.* .gnu.linkonce.tb.*)
 *(.tcommon)

.preinit_array  0x0001998c        0x0
                [!provide]                PROVIDE (__preinit_array_start = .)
 *(.preinit_array)
                [!provide]                PROVIDE (__preinit_array_end = .)

.init_array     0x0001998c        0x4
                [!provide]                PROVIDE (__init_array_start = .)
 *(SORT_BY_INIT_PRIORITY(.init_array.*) SORT_BY_INIT_PRIORITY(.ctors.*))
 *(.init_array EXCLUDE_FILE(*crtend?.o *crtend.o *crtbegin?.o *crtbegin.o) .ctors)
 .init_array    0x0001998c        0x4 C:/Program Files (x86)/Microsoft Azure Sphere SDK/Sysroots/1/usr/lib/arm-poky-linux-musleabi/7.3.0/crtbeginS.o
                [!provide]                PROVIDE (__init_array_end = .)

.fini_array     0x00019990        0x4
                [!provide]                PROVIDE (__fini_array_start = .)
 *(SORT_BY_INIT_PRIORITY(.fini_array.*) SORT_BY_INIT_PRIORITY(.dtors.*))
 *(.fini_array EXCLUDE_FILE(*crtend?.o *crtend.o *crtbegin?.o *crtbegin.o) .dtors)
 .fini_array    0x00019990        0x4 C:/Program Files (x86)/Microsoft Azure Sphere SDK/Sysroots/1/usr/lib/arm-poky-linux-musleabi/7.3.0/crtbeginS.o
                [!provide]                PROVIDE (__fini_array_end = .)

.ctors
 *crtbegin.o(.ctors)
 *crtbegin?.o(.ctors)
 *(EXCLUDE_FILE(*crtend?.o *crtend.o) .ctors)
 *(SORT_BY_NAME(.ctors.*))
 *(.ctors)

.dtors
 *crtbegin.o(.dtors)
 *crtbegin?.o(.dtors)
 *(EXCLUDE_FILE(*crtend?.o *crtend.o) .dtors)
 *(SORT_BY_NAME(.dtors.*))
 *(.dtors)

.jcr
 *(.jcr)

.data.rel.ro    0x00019994      0x574
 *(.data.rel.ro.local* .gnu.linkonce.d.rel.ro.local.*)
 .data.rel.ro.local
                0x00019994        0x8 obj\ARM\Debug\il2c.o
 .data.rel.ro.local
                0x0001999c        0x4 obj\ARM\Debug\System.Array.o
 .data.rel.ro.local
                0x000199a0        0x8 obj\ARM\Debug\System.Boolean.o
 .data.rel.ro.local
                0x000199a8        0x4 obj\ARM\Debug\System.Exception.o
 .data.rel.ro.local
                0x000199ac       0x30 obj\ARM\Debug\System.Object.o
                0x000199ac                System_Object_VTABLE__
                0x000199c0                System_Object_RUNTIME_TYPE__
 *(.data.rel.ro .data.rel.ro.* .gnu.linkonce.d.rel.ro.*)
 .data.rel.ro   0x000199dc        0x0 C:/Program Files (x86)/Microsoft Azure Sphere SDK/Sysroots/1/usr/lib/Scrt1.o
 .data.rel.ro   0x000199dc       0x28 obj\ARM\Debug\il2c.o
 .data.rel.ro   0x00019a04       0x30 obj\ARM\Debug\System.Array.o
                0x00019a18                System_Array_RUNTIME_TYPE__
 .data.rel.ro   0x00019a34       0x58 obj\ARM\Debug\System.Boolean.o
                0x00019a5c                System_Boolean_VTABLE__
                0x00019a70                System_Boolean_RUNTIME_TYPE__
 .data.rel.ro   0x00019a8c       0x30 obj\ARM\Debug\System.Byte.o
                0x00019a8c                System_Byte_VTABLE__
                0x00019aa0                System_Byte_RUNTIME_TYPE__
 .data.rel.ro   0x00019abc       0x30 obj\ARM\Debug\System.Char.o
                0x00019abc                System_Char_VTABLE__
                0x00019ad0                System_Char_RUNTIME_TYPE__
 .data.rel.ro   0x00019aec       0x1c obj\ARM\Debug\System.Console.o
                0x00019aec                System_Console_RUNTIME_TYPE__
 .data.rel.ro   0x00019b08       0x30 obj\ARM\Debug\System.Delegate.o
                0x00019b08                System_Delegate_VTABLE__
                0x00019b1c                System_Delegate_RUNTIME_TYPE__
 .data.rel.ro   0x00019b38       0x30 obj\ARM\Debug\System.Double.o
                0x00019b38                System_Double_VTABLE__
                0x00019b4c                System_Double_RUNTIME_TYPE__
 .data.rel.ro   0x00019b68       0x30 obj\ARM\Debug\System.Enum.o
                0x00019b68                System_Enum_VTABLE__
                0x00019b7c                System_Enum_RUNTIME_TYPE__
 .data.rel.ro   0x00019b98       0x50 obj\ARM\Debug\System.Exception.o
                0x00019bac                System_Exception_VTABLE__
                0x00019bc4                System_Exception_RUNTIME_TYPE__
 .data.rel.ro   0x00019be8       0x1c obj\ARM\Debug\System.GC.o
                0x00019be8                System_GC_RUNTIME_TYPE__
 .data.rel.ro   0x00019c04       0x30 obj\ARM\Debug\System.Int16.o
                0x00019c04                System_Int16_VTABLE__
                0x00019c18                System_Int16_RUNTIME_TYPE__
 .data.rel.ro   0x00019c34       0x30 obj\ARM\Debug\System.Int32.o
                0x00019c34                System_Int32_VTABLE__
                0x00019c48                System_Int32_RUNTIME_TYPE__
 .data.rel.ro   0x00019c64       0x30 obj\ARM\Debug\System.Int64.o
                0x00019c64                System_Int64_VTABLE__
                0x00019c78                System_Int64_RUNTIME_TYPE__
 .data.rel.ro   0x00019c94       0x30 obj\ARM\Debug\System.IntPtr.o
                0x00019c94                System_IntPtr_VTABLE__
                0x00019ca8                System_IntPtr_RUNTIME_TYPE__
 .data.rel.ro   0x00019cc4       0x1c obj\ARM\Debug\System.IndexOutOfRangeException.o
                0x00019cc4                System_IndexOutOfRangeException_RUNTIME_TYPE__
 .data.rel.ro   0x00019ce0       0x1c obj\ARM\Debug\System.InvalidCastException.o
                0x00019ce0                System_InvalidCastException_RUNTIME_TYPE__
 .data.rel.ro   0x00019cfc       0x1c obj\ARM\Debug\System.MulticastDelegate.o
                0x00019cfc                System_MulticastDelegate_RUNTIME_TYPE__
 .data.rel.ro   0x00019d18       0x1c obj\ARM\Debug\System.NullReferenceException.o
                0x00019d18                System_NullReferenceException_RUNTIME_TYPE__
 .data.rel.ro   0x00019d34       0x1c obj\ARM\Debug\System.Runtime.CompilerServices.RuntimeHelpers.o
                0x00019d34                System_Runtime_CompilerServices_RuntimeHelpers_RUNTIME_TYPE__
 .data.rel.ro   0x00019d50       0x30 obj\ARM\Debug\System.SByte.o
                0x00019d50                System_SByte_VTABLE__
                0x00019d64                System_SByte_RUNTIME_TYPE__
 .data.rel.ro   0x00019d80       0x30 obj\ARM\Debug\System.Single.o
                0x00019d80                System_Single_VTABLE__
                0x00019d94                System_Single_RUNTIME_TYPE__
 .data.rel.ro   0x00019db0       0x30 obj\ARM\Debug\System.String.o
                0x00019db0                System_String_VTABLE__
                0x00019dc4                System_String_RUNTIME_TYPE__
 .data.rel.ro   0x00019de0       0x38 obj\ARM\Debug\System.Type.o
                0x00019de0                System_Type_VTABLE__
                0x00019dfc                System_Type_RUNTIME_TYPE__
 .data.rel.ro   0x00019e18       0x30 obj\ARM\Debug\System.UInt16.o
                0x00019e18                System_UInt16_VTABLE__
                0x00019e2c                System_UInt16_RUNTIME_TYPE__
 .data.rel.ro   0x00019e48       0x30 obj\ARM\Debug\System.UInt32.o
                0x00019e48                System_UInt32_VTABLE__
                0x00019e5c                System_UInt32_RUNTIME_TYPE__
 .data.rel.ro   0x00019e78       0x30 obj\ARM\Debug\System.UInt64.o
                0x00019e78                System_UInt64_VTABLE__
                0x00019e8c                System_UInt64_RUNTIME_TYPE__
 .data.rel.ro   0x00019ea8       0x30 obj\ARM\Debug\System.UIntPtr.o
                0x00019ea8                System_UIntPtr_VTABLE__
                0x00019ebc                System_UIntPtr_RUNTIME_TYPE__
 .data.rel.ro   0x00019ed8       0x30 obj\ARM\Debug\System.ValueType.o
                0x00019ed8                System_ValueType_VTABLE__
                0x00019eec                System_ValueType_RUNTIME_TYPE__

.dynamic        0x00019f08       0xf8
 *(.dynamic)
 .dynamic       0x00019f08       0xf8 C:/Program Files (x86)/Microsoft Azure Sphere SDK/Sysroots/1/usr/lib/Scrt1.o
                0x00019f08                _DYNAMIC
                0x0001a000                . = DATA_SEGMENT_RELRO_END (., 0x0)

.got            0x0001a000       0xb0
 *(.got.plt)
 .got.plt       0x0001a000       0x74 C:/Program Files (x86)/Microsoft Azure Sphere SDK/Sysroots/1/usr/lib/Scrt1.o
                0x0001a000                _GLOBAL_OFFSET_TABLE_
 *(.igot.plt)
 .igot.plt      0x0001a074        0x0 C:/Program Files (x86)/Microsoft Azure Sphere SDK/Sysroots/1/usr/lib/Scrt1.o
 *(.got)
 .got           0x0001a074       0x3c C:/Program Files (x86)/Microsoft Azure Sphere SDK/Sysroots/1/usr/lib/Scrt1.o
 *(.igot)

.data           0x0001a0b0        0x4
                [!provide]                PROVIDE (__data_start = .)
 *(.data .data.* .gnu.linkonce.d.*)
 .data          0x0001a0b0        0x0 C:/Program Files (x86)/Microsoft Azure Sphere SDK/Sysroots/1/usr/lib/Scrt1.o
 .data          0x0001a0b0        0x0 C:/Program Files (x86)/Microsoft Azure Sphere SDK/Sysroots/1/usr/lib/crti.o
 .data          0x0001a0b0        0x0 C:/Program Files (x86)/Microsoft Azure Sphere SDK/Sysroots/1/usr/lib/arm-poky-linux-musleabi/7.3.0/crtbeginS.o
 .data.rel.local
                0x0001a0b0        0x4 C:/Program Files (x86)/Microsoft Azure Sphere SDK/Sysroots/1/usr/lib/arm-poky-linux-musleabi/7.3.0/crtbeginS.o
                0x0001a0b0                __dso_handle
 .data          0x0001a0b4        0x0 obj\ARM\Debug\il2c.o
 .data          0x0001a0b4        0x0 obj\ARM\Debug\System.Array.o
 .data          0x0001a0b4        0x0 obj\ARM\Debug\System.Boolean.o
 .data          0x0001a0b4        0x0 obj\ARM\Debug\System.Byte.o
 .data          0x0001a0b4        0x0 obj\ARM\Debug\System.Char.o
 .data          0x0001a0b4        0x0 obj\ARM\Debug\System.Console.o
 .data          0x0001a0b4        0x0 obj\ARM\Debug\System.Delegate.o
 .data          0x0001a0b4        0x0 obj\ARM\Debug\System.Double.o
 .data          0x0001a0b4        0x0 obj\ARM\Debug\System.Enum.o
 .data          0x0001a0b4        0x0 obj\ARM\Debug\System.Exception.o
 .data          0x0001a0b4        0x0 obj\ARM\Debug\System.GC.o
 .data          0x0001a0b4        0x0 obj\ARM\Debug\System.Int16.o
 .data          0x0001a0b4        0x0 obj\ARM\Debug\System.Int32.o
 .data          0x0001a0b4        0x0 obj\ARM\Debug\System.Int64.o
 .data          0x0001a0b4        0x0 obj\ARM\Debug\System.IntPtr.o
 .data          0x0001a0b4        0x0 obj\ARM\Debug\System.IndexOutOfRangeException.o
 .data          0x0001a0b4        0x0 obj\ARM\Debug\System.InvalidCastException.o
 .data          0x0001a0b4        0x0 obj\ARM\Debug\System.MulticastDelegate.o
 .data          0x0001a0b4        0x0 obj\ARM\Debug\System.NullReferenceException.o
 .data          0x0001a0b4        0x0 obj\ARM\Debug\System.Object.o
 .data          0x0001a0b4        0x0 obj\ARM\Debug\System.Runtime.CompilerServices.RuntimeHelpers.o
 .data          0x0001a0b4        0x0 obj\ARM\Debug\System.SByte.o
 .data          0x0001a0b4        0x0 obj\ARM\Debug\System.Single.o
 .data          0x0001a0b4        0x0 obj\ARM\Debug\System.String.o
 .data          0x0001a0b4        0x0 obj\ARM\Debug\System.Type.o
 .data          0x0001a0b4        0x0 obj\ARM\Debug\System.UInt16.o
 .data          0x0001a0b4        0x0 obj\ARM\Debug\System.UInt32.o
 .data          0x0001a0b4        0x0 obj\ARM\Debug\System.UInt64.o
 .data          0x0001a0b4        0x0 obj\ARM\Debug\System.UIntPtr.o
 .data          0x0001a0b4        0x0 obj\ARM\Debug\System.ValueType.o
 .data          0x0001a0b4        0x0 C:/Program Files (x86)/Microsoft Azure Sphere SDK/Sysroots/1/usr/lib/arm-poky-linux-musleabi/7.3.0/crtendS.o
 .data          0x0001a0b4        0x0 C:/Program Files (x86)/Microsoft Azure Sphere SDK/Sysroots/1/usr/lib/crtn.o

.tm_clone_table
                0x0001a0b4        0x0
 .tm_clone_table
                0x0001a0b4        0x0 C:/Program Files (x86)/Microsoft Azure Sphere SDK/Sysroots/1/usr/lib/arm-poky-linux-musleabi/7.3.0/crtbeginS.o
 .tm_clone_table
                0x0001a0b4        0x0 C:/Program Files (x86)/Microsoft Azure Sphere SDK/Sysroots/1/usr/lib/arm-poky-linux-musleabi/7.3.0/crtendS.o

.data1
 *(.data1)
                0x0001a0b4                _edata = .
                [!provide]                PROVIDE (edata = .)
                0x0001a0b4                . = .
                0x0001a0b4                __bss_start = .
                0x0001a0b4                __bss_start__ = .

.bss            0x0001a0b4       0x2c
 *(.dynbss)
 .dynbss        0x0001a0b4        0x0 C:/Program Files (x86)/Microsoft Azure Sphere SDK/Sysroots/1/usr/lib/Scrt1.o
 *(.bss .bss.* .gnu.linkonce.b.*)
 .bss           0x0001a0b4        0x0 C:/Program Files (x86)/Microsoft Azure Sphere SDK/Sysroots/1/usr/lib/Scrt1.o
 .bss           0x0001a0b4        0x0 C:/Program Files (x86)/Microsoft Azure Sphere SDK/Sysroots/1/usr/lib/crti.o
 .bss           0x0001a0b4       0x1c C:/Program Files (x86)/Microsoft Azure Sphere SDK/Sysroots/1/usr/lib/arm-poky-linux-musleabi/7.3.0/crtbeginS.o
 .bss           0x0001a0d0       0x10 obj\ARM\Debug\il2c.o
 .bss           0x0001a0e0        0x0 obj\ARM\Debug\System.Array.o
 .bss           0x0001a0e0        0x0 obj\ARM\Debug\System.Boolean.o
 .bss           0x0001a0e0        0x0 obj\ARM\Debug\System.Byte.o
 .bss           0x0001a0e0        0x0 obj\ARM\Debug\System.Char.o
 .bss           0x0001a0e0        0x0 obj\ARM\Debug\System.Console.o
 .bss           0x0001a0e0        0x0 obj\ARM\Debug\System.Delegate.o
 .bss           0x0001a0e0        0x0 obj\ARM\Debug\System.Double.o
 .bss           0x0001a0e0        0x0 obj\ARM\Debug\System.Enum.o
 .bss           0x0001a0e0        0x0 obj\ARM\Debug\System.Exception.o
 .bss           0x0001a0e0        0x0 obj\ARM\Debug\System.GC.o
 .bss           0x0001a0e0        0x0 obj\ARM\Debug\System.Int16.o
 .bss           0x0001a0e0        0x0 obj\ARM\Debug\System.Int32.o
 .bss           0x0001a0e0        0x0 obj\ARM\Debug\System.Int64.o
 .bss           0x0001a0e0        0x0 obj\ARM\Debug\System.IntPtr.o
 .bss           0x0001a0e0        0x0 obj\ARM\Debug\System.IndexOutOfRangeException.o
 .bss           0x0001a0e0        0x0 obj\ARM\Debug\System.InvalidCastException.o
 .bss           0x0001a0e0        0x0 obj\ARM\Debug\System.MulticastDelegate.o
 .bss           0x0001a0e0        0x0 obj\ARM\Debug\System.NullReferenceException.o
 .bss           0x0001a0e0        0x0 obj\ARM\Debug\System.Object.o
 .bss           0x0001a0e0        0x0 obj\ARM\Debug\System.Runtime.CompilerServices.RuntimeHelpers.o
 .bss           0x0001a0e0        0x0 obj\ARM\Debug\System.SByte.o
 .bss           0x0001a0e0        0x0 obj\ARM\Debug\System.Single.o
 .bss           0x0001a0e0        0x0 obj\ARM\Debug\System.String.o
 .bss           0x0001a0e0        0x0 obj\ARM\Debug\System.Type.o
 .bss           0x0001a0e0        0x0 obj\ARM\Debug\System.UInt16.o
 .bss           0x0001a0e0        0x0 obj\ARM\Debug\System.UInt32.o
 .bss           0x0001a0e0        0x0 obj\ARM\Debug\System.UInt64.o
 .bss           0x0001a0e0        0x0 obj\ARM\Debug\System.UIntPtr.o
 .bss           0x0001a0e0        0x0 obj\ARM\Debug\System.ValueType.o
 .bss           0x0001a0e0        0x0 C:/Program Files (x86)/Microsoft Azure Sphere SDK/Sysroots/1/usr/lib/arm-poky-linux-musleabi/7.3.0/crtendS.o
 .bss           0x0001a0e0        0x0 C:/Program Files (x86)/Microsoft Azure Sphere SDK/Sysroots/1/usr/lib/crtn.o
 *(COMMON)
                0x0001a0e0                . = ALIGN ((. != 0x0)?0x4:0x1)
                0x0001a0e0                _bss_end__ = .
                0x0001a0e0                __bss_end__ = .
                0x0001a0e0                . = ALIGN (0x4)
                0x0001a0e0                . = SEGMENT_START ("ldata-segment", .)
                0x0001a0e0                . = ALIGN (0x4)
                0x0001a0e0                __end__ = .
                0x0001a0e0                _end = .
                [!provide]                PROVIDE (end = .)
                0x0001a0e0                . = DATA_SEGMENT_END (.)

.stab
 *(.stab)

.stabstr
 *(.stabstr)

.stab.excl
 *(.stab.excl)

.stab.exclstr
 *(.stab.exclstr)

.stab.index
 *(.stab.index)

.stab.indexstr
 *(.stab.indexstr)

.comment        0x00000000       0x11
 *(.comment)
 .comment       0x00000000       0x11 C:/Program Files (x86)/Microsoft Azure Sphere SDK/Sysroots/1/usr/lib/Scrt1.o
                                 0x12 (size before relaxing)
 .comment       0x00000011       0x12 C:/Program Files (x86)/Microsoft Azure Sphere SDK/Sysroots/1/usr/lib/arm-poky-linux-musleabi/7.3.0/crtbeginS.o
 .comment       0x00000011       0x12 obj\ARM\Debug\il2c.o
 .comment       0x00000011       0x12 obj\ARM\Debug\System.Array.o
 .comment       0x00000011       0x12 obj\ARM\Debug\System.Boolean.o
 .comment       0x00000011       0x12 obj\ARM\Debug\System.Byte.o
 .comment       0x00000011       0x12 obj\ARM\Debug\System.Char.o
 .comment       0x00000011       0x12 obj\ARM\Debug\System.Console.o
 .comment       0x00000011       0x12 obj\ARM\Debug\System.Delegate.o
 .comment       0x00000011       0x12 obj\ARM\Debug\System.Double.o
 .comment       0x00000011       0x12 obj\ARM\Debug\System.Enum.o
 .comment       0x00000011       0x12 obj\ARM\Debug\System.Exception.o
 .comment       0x00000011       0x12 obj\ARM\Debug\System.GC.o
 .comment       0x00000011       0x12 obj\ARM\Debug\System.Int16.o
 .comment       0x00000011       0x12 obj\ARM\Debug\System.Int32.o
 .comment       0x00000011       0x12 obj\ARM\Debug\System.Int64.o
 .comment       0x00000011       0x12 obj\ARM\Debug\System.IntPtr.o
 .comment       0x00000011       0x12 obj\ARM\Debug\System.IndexOutOfRangeException.o
 .comment       0x00000011       0x12 obj\ARM\Debug\System.InvalidCastException.o
 .comment       0x00000011       0x12 obj\ARM\Debug\System.MulticastDelegate.o
 .comment       0x00000011       0x12 obj\ARM\Debug\System.NullReferenceException.o
 .comment       0x00000011       0x12 obj\ARM\Debug\System.Object.o
 .comment       0x00000011       0x12 obj\ARM\Debug\System.Runtime.CompilerServices.RuntimeHelpers.o
 .comment       0x00000011       0x12 obj\ARM\Debug\System.SByte.o
 .comment       0x00000011       0x12 obj\ARM\Debug\System.Single.o
 .comment       0x00000011       0x12 obj\ARM\Debug\System.String.o
 .comment       0x00000011       0x12 obj\ARM\Debug\System.Type.o
 .comment       0x00000011       0x12 obj\ARM\Debug\System.UInt16.o
 .comment       0x00000011       0x12 obj\ARM\Debug\System.UInt32.o
 .comment       0x00000011       0x12 obj\ARM\Debug\System.UInt64.o
 .comment       0x00000011       0x12 obj\ARM\Debug\System.UIntPtr.o
 .comment       0x00000011       0x12 obj\ARM\Debug\System.ValueType.o
 .comment       0x00000011       0x12 C:/Program Files (x86)/Microsoft Azure Sphere SDK/Sysroots/1/usr/lib/arm-poky-linux-musleabi/7.3.0/crtendS.o

.ARM.attributes
                0x00000000       0x41
 .ARM.attributes
                0x00000000       0x43 C:/Program Files (x86)/Microsoft Azure Sphere SDK/Sysroots/1/usr/lib/Scrt1.o
 .ARM.attributes
                0x00000043       0x2d C:/Program Files (x86)/Microsoft Azure Sphere SDK/Sysroots/1/usr/lib/crti.o
 .ARM.attributes
                0x00000070       0x41 C:/Program Files (x86)/Microsoft Azure Sphere SDK/Sysroots/1/usr/lib/arm-poky-linux-musleabi/7.3.0/crtbeginS.o
 .ARM.attributes
                0x000000b1       0x41 obj\ARM\Debug\il2c.o
 .ARM.attributes
                0x000000f2       0x41 obj\ARM\Debug\System.Array.o
 .ARM.attributes
                0x00000133       0x41 obj\ARM\Debug\System.Boolean.o
 .ARM.attributes
                0x00000174       0x41 obj\ARM\Debug\System.Byte.o
 .ARM.attributes
                0x000001b5       0x41 obj\ARM\Debug\System.Char.o
 .ARM.attributes
                0x000001f6       0x41 obj\ARM\Debug\System.Console.o
 .ARM.attributes
                0x00000237       0x41 obj\ARM\Debug\System.Delegate.o
 .ARM.attributes
                0x00000278       0x41 obj\ARM\Debug\System.Double.o
 .ARM.attributes
                0x000002b9       0x41 obj\ARM\Debug\System.Enum.o
 .ARM.attributes
                0x000002fa       0x41 obj\ARM\Debug\System.Exception.o
 .ARM.attributes
                0x0000033b       0x41 obj\ARM\Debug\System.GC.o
 .ARM.attributes
                0x0000037c       0x41 obj\ARM\Debug\System.Int16.o
 .ARM.attributes
                0x000003bd       0x41 obj\ARM\Debug\System.Int32.o
 .ARM.attributes
                0x000003fe       0x41 obj\ARM\Debug\System.Int64.o
 .ARM.attributes
                0x0000043f       0x41 obj\ARM\Debug\System.IntPtr.o
 .ARM.attributes
                0x00000480       0x41 obj\ARM\Debug\System.IndexOutOfRangeException.o
 .ARM.attributes
                0x000004c1       0x41 obj\ARM\Debug\System.InvalidCastException.o
 .ARM.attributes
                0x00000502       0x41 obj\ARM\Debug\System.MulticastDelegate.o
 .ARM.attributes
                0x00000543       0x41 obj\ARM\Debug\System.NullReferenceException.o
 .ARM.attributes
                0x00000584       0x41 obj\ARM\Debug\System.Object.o
 .ARM.attributes
                0x000005c5       0x41 obj\ARM\Debug\System.Runtime.CompilerServices.RuntimeHelpers.o
 .ARM.attributes
                0x00000606       0x41 obj\ARM\Debug\System.SByte.o
 .ARM.attributes
                0x00000647       0x41 obj\ARM\Debug\System.Single.o
 .ARM.attributes
                0x00000688       0x41 obj\ARM\Debug\System.String.o
 .ARM.attributes
                0x000006c9       0x41 obj\ARM\Debug\System.Type.o
 .ARM.attributes
                0x0000070a       0x41 obj\ARM\Debug\System.UInt16.o
 .ARM.attributes
                0x0000074b       0x41 obj\ARM\Debug\System.UInt32.o
 .ARM.attributes
                0x0000078c       0x41 obj\ARM\Debug\System.UInt64.o
 .ARM.attributes
                0x000007cd       0x41 obj\ARM\Debug\System.UIntPtr.o
 .ARM.attributes
                0x0000080e       0x41 obj\ARM\Debug\System.ValueType.o
 .ARM.attributes
                0x0000084f       0x41 C:/Program Files (x86)/Microsoft Azure Sphere SDK/Sysroots/1/usr/lib/arm-poky-linux-musleabi/7.3.0/crtendS.o
 .ARM.attributes
                0x00000890       0x2d C:/Program Files (x86)/Microsoft Azure Sphere SDK/Sysroots/1/usr/lib/crtn.o

.debug
 *(.debug)

.line
 *(.line)

.debug_srcinfo
 *(.debug_srcinfo)

.debug_sfnames
 *(.debug_sfnames)

.debug_aranges  0x00000000      0x410
 *(.debug_aranges)
 .debug_aranges
                0x00000000       0x20 C:/Program Files (x86)/Microsoft Azure Sphere SDK/Sysroots/1/usr/lib/Scrt1.o
 .debug_aranges
                0x00000020       0x28 C:/Program Files (x86)/Microsoft Azure Sphere SDK/Sysroots/1/usr/lib/crti.o
 .debug_aranges
                0x00000048       0x20 obj\ARM\Debug\il2c.o
 .debug_aranges
                0x00000068       0x20 obj\ARM\Debug\System.Array.o
 .debug_aranges
                0x00000088       0x20 obj\ARM\Debug\System.Boolean.o
 .debug_aranges
                0x000000a8       0x20 obj\ARM\Debug\System.Byte.o
 .debug_aranges
                0x000000c8       0x20 obj\ARM\Debug\System.Char.o
 .debug_aranges
                0x000000e8       0x20 obj\ARM\Debug\System.Console.o
 .debug_aranges
                0x00000108       0x20 obj\ARM\Debug\System.Delegate.o
 .debug_aranges
                0x00000128       0x20 obj\ARM\Debug\System.Double.o
 .debug_aranges
                0x00000148       0x20 obj\ARM\Debug\System.Enum.o
 .debug_aranges
                0x00000168       0x20 obj\ARM\Debug\System.Exception.o
 .debug_aranges
                0x00000188       0x20 obj\ARM\Debug\System.GC.o
 .debug_aranges
                0x000001a8       0x20 obj\ARM\Debug\System.Int16.o
 .debug_aranges
                0x000001c8       0x20 obj\ARM\Debug\System.Int32.o
 .debug_aranges
                0x000001e8       0x20 obj\ARM\Debug\System.Int64.o
 .debug_aranges
                0x00000208       0x20 obj\ARM\Debug\System.IntPtr.o
 .debug_aranges
                0x00000228       0x18 obj\ARM\Debug\System.IndexOutOfRangeException.o
 .debug_aranges
                0x00000240       0x18 obj\ARM\Debug\System.InvalidCastException.o
 .debug_aranges
                0x00000258       0x18 obj\ARM\Debug\System.MulticastDelegate.o
 .debug_aranges
                0x00000270       0x18 obj\ARM\Debug\System.NullReferenceException.o
 .debug_aranges
                0x00000288       0x20 obj\ARM\Debug\System.Object.o
 .debug_aranges
                0x000002a8       0x20 obj\ARM\Debug\System.Runtime.CompilerServices.RuntimeHelpers.o
 .debug_aranges
                0x000002c8       0x20 obj\ARM\Debug\System.SByte.o
 .debug_aranges
                0x000002e8       0x20 obj\ARM\Debug\System.Single.o
 .debug_aranges
                0x00000308       0x20 obj\ARM\Debug\System.String.o
 .debug_aranges
                0x00000328       0x20 obj\ARM\Debug\System.Type.o
 .debug_aranges
                0x00000348       0x20 obj\ARM\Debug\System.UInt16.o
 .debug_aranges
                0x00000368       0x20 obj\ARM\Debug\System.UInt32.o
 .debug_aranges
                0x00000388       0x20 obj\ARM\Debug\System.UInt64.o
 .debug_aranges
                0x000003a8       0x20 obj\ARM\Debug\System.UIntPtr.o
 .debug_aranges
                0x000003c8       0x20 obj\ARM\Debug\System.ValueType.o
 .debug_aranges
                0x000003e8       0x28 C:/Program Files (x86)/Microsoft Azure Sphere SDK/Sysroots/1/usr/lib/crtn.o

.debug_pubnames
 *(.debug_pubnames)

.debug_info     0x00000000    0x13405
 *(.debug_info .gnu.linkonce.wi.*)
 .debug_info    0x00000000       0xc0 C:/Program Files (x86)/Microsoft Azure Sphere SDK/Sysroots/1/usr/lib/Scrt1.o
 .debug_info    0x000000c0       0x22 C:/Program Files (x86)/Microsoft Azure Sphere SDK/Sysroots/1/usr/lib/crti.o
 .debug_info    0x000000e2     0x1898 obj\ARM\Debug\il2c.o
 .debug_info    0x0000197a      0xb02 obj\ARM\Debug\System.Array.o
 .debug_info    0x0000247c      0xaae obj\ARM\Debug\System.Boolean.o
 .debug_info    0x00002f2a      0xa91 obj\ARM\Debug\System.Byte.o
 .debug_info    0x000039bb      0xa2b obj\ARM\Debug\System.Char.o
 .debug_info    0x000043e6      0x890 obj\ARM\Debug\System.Console.o
 .debug_info    0x00004c76      0xc44 obj\ARM\Debug\System.Delegate.o
 .debug_info    0x000058ba      0xa4d obj\ARM\Debug\System.Double.o
 .debug_info    0x00006307      0x811 obj\ARM\Debug\System.Enum.o
 .debug_info    0x00006b18      0xa19 obj\ARM\Debug\System.Exception.o
 .debug_info    0x00007531      0x70c obj\ARM\Debug\System.GC.o
 .debug_info    0x00007c3d      0xa9c obj\ARM\Debug\System.Int16.o
 .debug_info    0x000086d9      0xa94 obj\ARM\Debug\System.Int32.o
 .debug_info    0x0000916d      0xa90 obj\ARM\Debug\System.Int64.o
 .debug_info    0x00009bfd      0xa54 obj\ARM\Debug\System.IntPtr.o
 .debug_info    0x0000a651      0x6ef obj\ARM\Debug\System.IndexOutOfRangeException.o
 .debug_info    0x0000ad40      0x6ef obj\ARM\Debug\System.InvalidCastException.o
 .debug_info    0x0000b42f      0x6ef obj\ARM\Debug\System.MulticastDelegate.o
 .debug_info    0x0000bb1e      0x6ef obj\ARM\Debug\System.NullReferenceException.o
 .debug_info    0x0000c20d      0xa28 obj\ARM\Debug\System.Object.o
 .debug_info    0x0000cc35      0x82e obj\ARM\Debug\System.Runtime.CompilerServices.RuntimeHelpers.o
 .debug_info    0x0000d463      0xa9c obj\ARM\Debug\System.SByte.o
 .debug_info    0x0000deff      0xa42 obj\ARM\Debug\System.Single.o
 .debug_info    0x0000e941      0xebd obj\ARM\Debug\System.String.o
 .debug_info    0x0000f7fe      0x9d0 obj\ARM\Debug\System.Type.o
 .debug_info    0x000101ce      0xa9c obj\ARM\Debug\System.UInt16.o
 .debug_info    0x00010c6a      0xa8f obj\ARM\Debug\System.UInt32.o
 .debug_info    0x000116f9      0xa90 obj\ARM\Debug\System.UInt64.o
 .debug_info    0x00012189      0xa49 obj\ARM\Debug\System.UIntPtr.o
 .debug_info    0x00012bd2      0x811 obj\ARM\Debug\System.ValueType.o
 .debug_info    0x000133e3       0x22 C:/Program Files (x86)/Microsoft Azure Sphere SDK/Sysroots/1/usr/lib/crtn.o

.debug_abbrev   0x00000000     0x2f11
 *(.debug_abbrev)
 .debug_abbrev  0x00000000       0x93 C:/Program Files (x86)/Microsoft Azure Sphere SDK/Sysroots/1/usr/lib/Scrt1.o
 .debug_abbrev  0x00000093       0x12 C:/Program Files (x86)/Microsoft Azure Sphere SDK/Sysroots/1/usr/lib/crti.o
 .debug_abbrev  0x000000a5      0x2dd obj\ARM\Debug\il2c.o
 .debug_abbrev  0x00000382      0x1bc obj\ARM\Debug\System.Array.o
 .debug_abbrev  0x0000053e      0x19b obj\ARM\Debug\System.Boolean.o
 .debug_abbrev  0x000006d9      0x1a8 obj\ARM\Debug\System.Byte.o
 .debug_abbrev  0x00000881      0x188 obj\ARM\Debug\System.Char.o
 .debug_abbrev  0x00000a09      0x1b1 obj\ARM\Debug\System.Console.o
 .debug_abbrev  0x00000bba      0x191 obj\ARM\Debug\System.Delegate.o
 .debug_abbrev  0x00000d4b      0x188 obj\ARM\Debug\System.Double.o
 .debug_abbrev  0x00000ed3      0x163 obj\ARM\Debug\System.Enum.o
 .debug_abbrev  0x00001036      0x172 obj\ARM\Debug\System.Exception.o
 .debug_abbrev  0x000011a8      0x10f obj\ARM\Debug\System.GC.o
 .debug_abbrev  0x000012b7      0x1a8 obj\ARM\Debug\System.Int16.o
 .debug_abbrev  0x0000145f      0x1a8 obj\ARM\Debug\System.Int32.o
 .debug_abbrev  0x00001607      0x1a8 obj\ARM\Debug\System.Int64.o
 .debug_abbrev  0x000017af      0x1a8 obj\ARM\Debug\System.IntPtr.o
 .debug_abbrev  0x00001957       0xf5 obj\ARM\Debug\System.IndexOutOfRangeException.o
 .debug_abbrev  0x00001a4c       0xf5 obj\ARM\Debug\System.InvalidCastException.o
 .debug_abbrev  0x00001b41       0xf5 obj\ARM\Debug\System.MulticastDelegate.o
 .debug_abbrev  0x00001c36       0xf5 obj\ARM\Debug\System.NullReferenceException.o
 .debug_abbrev  0x00001d2b      0x1af obj\ARM\Debug\System.Object.o
 .debug_abbrev  0x00001eda      0x170 obj\ARM\Debug\System.Runtime.CompilerServices.RuntimeHelpers.o
 .debug_abbrev  0x0000204a      0x1a8 obj\ARM\Debug\System.SByte.o
 .debug_abbrev  0x000021f2      0x188 obj\ARM\Debug\System.Single.o
 .debug_abbrev  0x0000237a      0x1f0 obj\ARM\Debug\System.String.o
 .debug_abbrev  0x0000256a      0x192 obj\ARM\Debug\System.Type.o
 .debug_abbrev  0x000026fc      0x1a8 obj\ARM\Debug\System.UInt16.o
 .debug_abbrev  0x000028a4      0x1a8 obj\ARM\Debug\System.UInt32.o
 .debug_abbrev  0x00002a4c      0x1a8 obj\ARM\Debug\System.UInt64.o
 .debug_abbrev  0x00002bf4      0x1a8 obj\ARM\Debug\System.UIntPtr.o
 .debug_abbrev  0x00002d9c      0x163 obj\ARM\Debug\System.ValueType.o
 .debug_abbrev  0x00002eff       0x12 C:/Program Files (x86)/Microsoft Azure Sphere SDK/Sysroots/1/usr/lib/crtn.o

.debug_line     0x00000000     0x877d
 *(.debug_line .debug_line.* .debug_line_end)
 .debug_line    0x00000000       0x76 C:/Program Files (x86)/Microsoft Azure Sphere SDK/Sysroots/1/usr/lib/Scrt1.o
 .debug_line    0x00000076       0x4b C:/Program Files (x86)/Microsoft Azure Sphere SDK/Sysroots/1/usr/lib/crti.o
 .debug_line    0x000000c1      0xa00 obj\ARM\Debug\il2c.o
 .debug_line    0x00000ac1      0x508 obj\ARM\Debug\System.Array.o
 .debug_line    0x00000fc9      0x44e obj\ARM\Debug\System.Boolean.o
 .debug_line    0x00001417      0x461 obj\ARM\Debug\System.Byte.o
 .debug_line    0x00001878      0x442 obj\ARM\Debug\System.Char.o
 .debug_line    0x00001cba      0x410 obj\ARM\Debug\System.Console.o
 .debug_line    0x000020ca      0x5a9 obj\ARM\Debug\System.Delegate.o
 .debug_line    0x00002673      0x466 obj\ARM\Debug\System.Double.o
 .debug_line    0x00002ad9      0x3ab obj\ARM\Debug\System.Enum.o
 .debug_line    0x00002e84      0x3ff obj\ARM\Debug\System.Exception.o
 .debug_line    0x00003283      0x3a5 obj\ARM\Debug\System.GC.o
 .debug_line    0x00003628      0x467 obj\ARM\Debug\System.Int16.o
 .debug_line    0x00003a8f      0x46c obj\ARM\Debug\System.Int32.o
 .debug_line    0x00003efb      0x458 obj\ARM\Debug\System.Int64.o
 .debug_line    0x00004353      0x41c obj\ARM\Debug\System.IntPtr.o
 .debug_line    0x0000476f      0x3ac obj\ARM\Debug\System.IndexOutOfRangeException.o
 .debug_line    0x00004b1b      0x3a8 obj\ARM\Debug\System.InvalidCastException.o
 .debug_line    0x00004ec3      0x3a5 obj\ARM\Debug\System.MulticastDelegate.o
 .debug_line    0x00005268      0x3aa obj\ARM\Debug\System.NullReferenceException.o
 .debug_line    0x00005612      0x40b obj\ARM\Debug\System.Object.o
 .debug_line    0x00005a1d      0x3f3 obj\ARM\Debug\System.Runtime.CompilerServices.RuntimeHelpers.o
 .debug_line    0x00005e10      0x467 obj\ARM\Debug\System.SByte.o
 .debug_line    0x00006277      0x466 obj\ARM\Debug\System.Single.o
 .debug_line    0x000066dd      0x6f8 obj\ARM\Debug\System.String.o
 .debug_line    0x00006dd5      0x47b obj\ARM\Debug\System.Type.o
 .debug_line    0x00007250      0x463 obj\ARM\Debug\System.UInt16.o
 .debug_line    0x000076b3      0x459 obj\ARM\Debug\System.UInt32.o
 .debug_line    0x00007b0c      0x459 obj\ARM\Debug\System.UInt64.o
 .debug_line    0x00007f65      0x41d obj\ARM\Debug\System.UIntPtr.o
 .debug_line    0x00008382      0x3b0 obj\ARM\Debug\System.ValueType.o
 .debug_line    0x00008732       0x4b C:/Program Files (x86)/Microsoft Azure Sphere SDK/Sysroots/1/usr/lib/crtn.o

.debug_frame    0x00000000     0x2058
 *(.debug_frame)
 .debug_frame   0x00000000       0x28 C:/Program Files (x86)/Microsoft Azure Sphere SDK/Sysroots/1/usr/lib/Scrt1.o
 .debug_frame   0x00000028      0x4b8 obj\ARM\Debug\il2c.o
 .debug_frame   0x000004e0      0x134 obj\ARM\Debug\System.Array.o
 .debug_frame   0x00000614      0x138 obj\ARM\Debug\System.Boolean.o
 .debug_frame   0x0000074c      0x154 obj\ARM\Debug\System.Byte.o
 .debug_frame   0x000008a0      0x130 obj\ARM\Debug\System.Char.o
 .debug_frame   0x000009d0       0xe4 obj\ARM\Debug\System.Console.o
 .debug_frame   0x00000ab4       0xe8 obj\ARM\Debug\System.Delegate.o
 .debug_frame   0x00000b9c      0x140 obj\ARM\Debug\System.Double.o
 .debug_frame   0x00000cdc       0x74 obj\ARM\Debug\System.Enum.o
 .debug_frame   0x00000d50       0xa0 obj\ARM\Debug\System.Exception.o
 .debug_frame   0x00000df0       0x2c obj\ARM\Debug\System.GC.o
 .debug_frame   0x00000e1c      0x154 obj\ARM\Debug\System.Int16.o
 .debug_frame   0x00000f70      0x154 obj\ARM\Debug\System.Int32.o
 .debug_frame   0x000010c4      0x164 obj\ARM\Debug\System.Int64.o
 .debug_frame   0x00001228      0x134 obj\ARM\Debug\System.IntPtr.o
 .debug_frame   0x0000135c       0xe8 obj\ARM\Debug\System.Object.o
 .debug_frame   0x00001444       0x5c obj\ARM\Debug\System.Runtime.CompilerServices.RuntimeHelpers.o
 .debug_frame   0x000014a0      0x154 obj\ARM\Debug\System.SByte.o
 .debug_frame   0x000015f4      0x130 obj\ARM\Debug\System.Single.o
 .debug_frame   0x00001724      0x298 obj\ARM\Debug\System.String.o
 .debug_frame   0x000019bc       0xe8 obj\ARM\Debug\System.Type.o
 .debug_frame   0x00001aa4      0x154 obj\ARM\Debug\System.UInt16.o
 .debug_frame   0x00001bf8      0x154 obj\ARM\Debug\System.UInt32.o
 .debug_frame   0x00001d4c      0x164 obj\ARM\Debug\System.UInt64.o
 .debug_frame   0x00001eb0      0x134 obj\ARM\Debug\System.UIntPtr.o
 .debug_frame   0x00001fe4       0x74 obj\ARM\Debug\System.ValueType.o

.debug_str      0x00000000     0x30ac
 *(.debug_str)
 .debug_str     0x00000000      0x1f2 C:/Program Files (x86)/Microsoft Azure Sphere SDK/Sysroots/1/usr/lib/Scrt1.o
                                0x200 (size before relaxing)
 .debug_str     0x000001f2       0x1d C:/Program Files (x86)/Microsoft Azure Sphere SDK/Sysroots/1/usr/lib/crti.o
                                 0x55 (size before relaxing)
 .debug_str     0x0000020f     0x1203 obj\ARM\Debug\il2c.o
                               0x12c2 (size before relaxing)
 .debug_str     0x00001412      0x1d5 obj\ARM\Debug\System.Array.o
                                0xcfd (size before relaxing)
 .debug_str     0x000015e7      0x1aa obj\ARM\Debug\System.Boolean.o
                                0xca6 (size before relaxing)
 .debug_str     0x00001791      0x134 obj\ARM\Debug\System.Byte.o
                                0xc14 (size before relaxing)
 .debug_str     0x000018c5      0x115 obj\ARM\Debug\System.Char.o
                                0xbf6 (size before relaxing)
 .debug_str     0x000019da       0xc4 obj\ARM\Debug\System.Console.o
                                0xb8e (size before relaxing)
 .debug_str     0x00001a9e      0x1d2 obj\ARM\Debug\System.Delegate.o
                                0xd14 (size before relaxing)
 .debug_str     0x00001c70      0x129 obj\ARM\Debug\System.Double.o
                                0xc1f (size before relaxing)
 .debug_str     0x00001d99       0x70 obj\ARM\Debug\System.Enum.o
                                0xb23 (size before relaxing)
 .debug_str     0x00001e09       0xde obj\ARM\Debug\System.Exception.o
                                0xc24 (size before relaxing)
 .debug_str     0x00001ee7       0x34 obj\ARM\Debug\System.GC.o
                                0xad7 (size before relaxing)
 .debug_str     0x00001f1b      0x11f obj\ARM\Debug\System.Int16.o
                                0xc26 (size before relaxing)
 .debug_str     0x0000203a      0x11f obj\ARM\Debug\System.Int32.o
                                0xc18 (size before relaxing)
 .debug_str     0x00002159      0x12b obj\ARM\Debug\System.Int64.o
                                0xc22 (size before relaxing)
 .debug_str     0x00002284      0x112 obj\ARM\Debug\System.IntPtr.o
                                0xc0d (size before relaxing)
 .debug_str     0x00002396       0x38 obj\ARM\Debug\System.IndexOutOfRangeException.o
                                0xadb (size before relaxing)
 .debug_str     0x000023ce       0x34 obj\ARM\Debug\System.InvalidCastException.o
                                0xad7 (size before relaxing)
 .debug_str     0x00002402       0x31 obj\ARM\Debug\System.MulticastDelegate.o
                                0xad4 (size before relaxing)
 .debug_str     0x00002433       0x36 obj\ARM\Debug\System.NullReferenceException.o
                                0xad9 (size before relaxing)
 .debug_str     0x00002469       0xc1 obj\ARM\Debug\System.Object.o
                                0xc14 (size before relaxing)
 .debug_str     0x0000252a       0xfe obj\ARM\Debug\System.Runtime.CompilerServices.RuntimeHelpers.o
                                0xbfa (size before relaxing)
 .debug_str     0x00002628      0x11f obj\ARM\Debug\System.SByte.o
                                0xc25 (size before relaxing)
 .debug_str     0x00002747      0x129 obj\ARM\Debug\System.Single.o
                                0xc17 (size before relaxing)
 .debug_str     0x00002870      0x256 obj\ARM\Debug\System.String.o
                                0xd41 (size before relaxing)
 .debug_str     0x00002ac6       0xc0 obj\ARM\Debug\System.Type.o
                                0xbc0 (size before relaxing)
 .debug_str     0x00002b86      0x129 obj\ARM\Debug\System.UInt16.o
                                0xc31 (size before relaxing)
 .debug_str     0x00002caf      0x134 obj\ARM\Debug\System.UInt32.o
                                0xc2c (size before relaxing)
 .debug_str     0x00002de3      0x136 obj\ARM\Debug\System.UInt64.o
                                0xc2e (size before relaxing)
 .debug_str     0x00002f19      0x10c obj\ARM\Debug\System.UIntPtr.o
                                0xc09 (size before relaxing)
 .debug_str     0x00003025       0x78 obj\ARM\Debug\System.ValueType.o
                                0xb3c (size before relaxing)
 .debug_str     0x0000309d        0xf C:/Program Files (x86)/Microsoft Azure Sphere SDK/Sysroots/1/usr/lib/crtn.o
                                 0x55 (size before relaxing)

.debug_loc      0x00000000     0x42fa
 *(.debug_loc)
 .debug_loc     0x00000000       0x72 C:/Program Files (x86)/Microsoft Azure Sphere SDK/Sysroots/1/usr/lib/Scrt1.o
 .debug_loc     0x00000072      0x9ec obj\ARM\Debug\il2c.o
 .debug_loc     0x00000a5e      0x280 obj\ARM\Debug\System.Array.o
 .debug_loc     0x00000cde      0x28c obj\ARM\Debug\System.Boolean.o
 .debug_loc     0x00000f6a      0x2d0 obj\ARM\Debug\System.Byte.o
 .debug_loc     0x0000123a      0x280 obj\ARM\Debug\System.Char.o
 .debug_loc     0x000014ba      0x1c0 obj\ARM\Debug\System.Console.o
 .debug_loc     0x0000167a      0x1e0 obj\ARM\Debug\System.Delegate.o
 .debug_loc     0x0000185a      0x282 obj\ARM\Debug\System.Double.o
 .debug_loc     0x00001adc       0xc0 obj\ARM\Debug\System.Enum.o
 .debug_loc     0x00001b9c      0x140 obj\ARM\Debug\System.Exception.o
 .debug_loc     0x00001cdc       0x2c obj\ARM\Debug\System.GC.o
 .debug_loc     0x00001d08      0x2d0 obj\ARM\Debug\System.Int16.o
 .debug_loc     0x00001fd8      0x2d2 obj\ARM\Debug\System.Int32.o
 .debug_loc     0x000022aa      0x2d2 obj\ARM\Debug\System.Int64.o
 .debug_loc     0x0000257c      0x282 obj\ARM\Debug\System.IntPtr.o
 .debug_loc     0x000027fe      0x1d4 obj\ARM\Debug\System.Object.o
 .debug_loc     0x000029d2       0xa0 obj\ARM\Debug\System.Runtime.CompilerServices.RuntimeHelpers.o
 .debug_loc     0x00002a72      0x2d0 obj\ARM\Debug\System.SByte.o
 .debug_loc     0x00002d42      0x282 obj\ARM\Debug\System.Single.o
 .debug_loc     0x00002fc4      0x5a0 obj\ARM\Debug\System.String.o
 .debug_loc     0x00003564      0x1e0 obj\ARM\Debug\System.Type.o
 .debug_loc     0x00003744      0x2d0 obj\ARM\Debug\System.UInt16.o
 .debug_loc     0x00003a14      0x2d2 obj\ARM\Debug\System.UInt32.o
 .debug_loc     0x00003ce6      0x2d2 obj\ARM\Debug\System.UInt64.o
 .debug_loc     0x00003fb8      0x282 obj\ARM\Debug\System.UIntPtr.o
 .debug_loc     0x0000423a       0xc0 obj\ARM\Debug\System.ValueType.o

.debug_macinfo
 *(.debug_macinfo)

.debug_weaknames
 *(.debug_weaknames)

.debug_funcnames
 *(.debug_funcnames)

.debug_typenames
 *(.debug_typenames)

.debug_varnames
 *(.debug_varnames)

.debug_pubtypes
 *(.debug_pubtypes)

.debug_ranges   0x00000000       0xb0
 *(.debug_ranges)
 .debug_ranges  0x00000000       0x10 C:/Program Files (x86)/Microsoft Azure Sphere SDK/Sysroots/1/usr/lib/Scrt1.o
 .debug_ranges  0x00000010       0x20 C:/Program Files (x86)/Microsoft Azure Sphere SDK/Sysroots/1/usr/lib/crti.o
 .debug_ranges  0x00000030       0x18 obj\ARM\Debug\il2c.o
 .debug_ranges  0x00000048       0x48 obj\ARM\Debug\System.String.o
 .debug_ranges  0x00000090       0x20 C:/Program Files (x86)/Microsoft Azure Sphere SDK/Sysroots/1/usr/lib/crtn.o

.debug_macro
 *(.debug_macro)

.debug_addr
 *(.debug_addr)

.gnu.attributes
 *(.gnu.attributes)

.note.gnu.arm.ident
 *(.note.gnu.arm.ident)

/DISCARD/
 *(.note.GNU-stack)
 *(.gnu_debuglink)
 *(.gnu.lto_*)
OUTPUT(bin\ARM\Debug\IL2C.Runtime.out elf32-littlearm)
